target datalayout = "e-m:e-p270:32:32-p271:32:32-p272:64:64-i64:64-i128:128-f80:128-n8:16:32:64-S128"
target triple = "x86_64-pc-linux-gnu"

%struct.H5P_iter_ud_t = type { ptr, i64, ptr }

@H5_libinit_g = external global i8, align 1
@H5_libterm_g = external global i8, align 1
@.str = private unnamed_addr constant [97 x i8] c"generated/home/dtcxzyw/WorkSpace/Projects/compilers/llvm-opt-benchmark/bench/hdf5/hdf5/src/H5P.c\00", align 1
@H5E_FUNC_g = external global i64, align 8
@H5E_CANTINIT_g = external global i64, align 8
@.str.1 = private unnamed_addr constant [30 x i8] c"library initialization failed\00", align 1
@H5E_CANTSET_g = external global i64, align 8
@.str.2 = private unnamed_addr constant [22 x i8] c"can't set API context\00", align 1
@H5E_ARGS_g = external global i64, align 8
@H5E_BADTYPE_g = external global i64, align 8
@H5E_PLIST_g = external global i64, align 8
@H5E_NOTFOUND_g = external global i64, align 8
@.str.4 = private unnamed_addr constant [30 x i8] c"property object doesn't exist\00", align 1
@H5E_CANTREGISTER_g = external global i64, align 8
@H5E_BADVALUE_g = external global i64, align 8
@.str.23 = private unnamed_addr constant [22 x i8] c"not a property object\00", align 1
@__func__.H5Piterate = private unnamed_addr constant [11 x i8] c"H5Piterate\00", align 1
@.str.41 = private unnamed_addr constant [27 x i8] c"invalid iteration callback\00", align 1
@.str.42 = private unnamed_addr constant [28 x i8] c"unable to iterate over list\00", align 1
@.str.43 = private unnamed_addr constant [29 x i8] c"unable to iterate over class\00", align 1

; Function Attrs: nounwind uwtable
define i32 @H5Piterate(i64 noundef %0, ptr noundef %1, ptr noundef %2, ptr noundef %3) #0 {
  %5 = alloca i64, align 8
  %6 = alloca ptr, align 8
  %7 = alloca ptr, align 8
  %8 = alloca ptr, align 8
  %9 = alloca %struct.H5P_iter_ud_t, align 8
  %10 = alloca i32, align 4
  %11 = alloca ptr, align 8
  %12 = alloca i32, align 4
  %13 = alloca i8, align 1
  %14 = alloca i8, align 1
  store i64 %0, ptr %5, align 8
  store ptr %1, ptr %6, align 8
  store ptr %2, ptr %7, align 8
  store ptr %3, ptr %8, align 8
  store i32 0, ptr %10, align 4
  store i8 0, ptr %13, align 1
  store i8 0, ptr %14, align 1
  %15 = load i8, ptr @H5_libinit_g, align 1
  %16 = trunc i8 %15 to i1
  br i1 %16, label %21, label %17

17:                                               ; preds = %4
  %18 = load i8, ptr @H5_libterm_g, align 1
  %19 = trunc i8 %18 to i1
  %20 = xor i1 %19, true
  br label %21

21:                                               ; preds = %17, %4
  %22 = phi i1 [ false, %4 ], [ %20, %17 ]
  %23 = xor i1 %22, true
  %24 = xor i1 %23, true
  %25 = zext i1 %24 to i32
  %26 = sext i32 %25 to i64
  %27 = icmp ne i64 %26, 0
  br i1 %27, label %28, label %52

28:                                               ; preds = %21
  %29 = call i32 @H5_init_library()
  %30 = icmp slt i32 %29, 0
  %31 = xor i1 %30, true
  %32 = xor i1 %31, true
  %33 = zext i1 %32 to i32
  %34 = sext i32 %33 to i64
  %35 = icmp ne i64 %34, 0
  br i1 %35, label %36, label %51

36:                                               ; preds = %28
  br label %37

37:                                               ; preds = %36
  br label %38

38:                                               ; preds = %37
  br label %39

39:                                               ; preds = %38
  %40 = load i64, ptr @H5E_FUNC_g, align 8
  %41 = load i64, ptr @H5E_CANTINIT_g, align 8
  %42 = call i32 (ptr, ptr, i32, i64, i64, ptr, ...) @H5E_printf_stack(ptr noundef @.str, ptr noundef @__func__.H5Piterate, i32 noundef 1179, i64 noundef %40, i64 noundef %41, ptr noundef @.str.1)
  br label %43

43:                                               ; preds = %39
  store i8 1, ptr %14, align 1
  %44 = load i8, ptr %14, align 1
  %45 = trunc i8 %44 to i1
  %46 = zext i1 %45 to i8
  store i8 %46, ptr %14, align 1
  br label %47

47:                                               ; preds = %43
  br label %48

48:                                               ; preds = %47
  store i32 -1, ptr %12, align 4
  br label %222

49:                                               ; No predecessors!
  br label %50

50:                                               ; preds = %49
  br label %51

51:                                               ; preds = %50, %28
  br label %52

52:                                               ; preds = %51, %21
  %53 = call i32 @H5CX_push()
  %54 = icmp slt i32 %53, 0
  %55 = xor i1 %54, true
  %56 = xor i1 %55, true
  %57 = zext i1 %56 to i32
  %58 = sext i32 %57 to i64
  %59 = icmp ne i64 %58, 0
  br i1 %59, label %60, label %75

60:                                               ; preds = %52
  br label %61

61:                                               ; preds = %60
  br label %62

62:                                               ; preds = %61
  br label %63

63:                                               ; preds = %62
  %64 = load i64, ptr @H5E_FUNC_g, align 8
  %65 = load i64, ptr @H5E_CANTSET_g, align 8
  %66 = call i32 (ptr, ptr, i32, i64, i64, ptr, ...) @H5E_printf_stack(ptr noundef @.str, ptr noundef @__func__.H5Piterate, i32 noundef 1179, i64 noundef %64, i64 noundef %65, ptr noundef @.str.2)
  br label %67

67:                                               ; preds = %63
  store i8 1, ptr %14, align 1
  %68 = load i8, ptr %14, align 1
  %69 = trunc i8 %68 to i1
  %70 = zext i1 %69 to i8
  store i8 %70, ptr %14, align 1
  br label %71

71:                                               ; preds = %67
  br label %72

72:                                               ; preds = %71
  store i32 -1, ptr %12, align 4
  br label %222

73:                                               ; No predecessors!
  br label %74

74:                                               ; preds = %73
  br label %76

75:                                               ; preds = %52
  store i8 1, ptr %13, align 1
  br label %76

76:                                               ; preds = %75, %74
  %77 = call i32 @H5E_clear_stack()
  %78 = load i64, ptr %5, align 8
  %79 = call i32 @H5I_get_type(i64 noundef %78)
  %80 = icmp ne i32 11, %79
  br i1 %80, label %81, label %100

81:                                               ; preds = %76
  %82 = load i64, ptr %5, align 8
  %83 = call i32 @H5I_get_type(i64 noundef %82)
  %84 = icmp ne i32 10, %83
  br i1 %84, label %85, label %100

85:                                               ; preds = %81
  br label %86

86:                                               ; preds = %85
  br label %87

87:                                               ; preds = %86
  br label %88

88:                                               ; preds = %87
  %89 = load i64, ptr @H5E_ARGS_g, align 8
  %90 = load i64, ptr @H5E_BADTYPE_g, align 8
  %91 = call i32 (ptr, ptr, i32, i64, i64, ptr, ...) @H5E_printf_stack(ptr noundef @.str, ptr noundef @__func__.H5Piterate, i32 noundef 1183, i64 noundef %89, i64 noundef %90, ptr noundef @.str.23)
  br label %92

92:                                               ; preds = %88
  store i8 1, ptr %14, align 1
  %93 = load i8, ptr %14, align 1
  %94 = trunc i8 %93 to i1
  %95 = zext i1 %94 to i8
  store i8 %95, ptr %14, align 1
  br label %96

96:                                               ; preds = %92
  br label %97

97:                                               ; preds = %96
  store i32 -1, ptr %12, align 4
  br label %222

98:                                               ; No predecessors!
  br label %99

99:                                               ; preds = %98
  br label %100

100:                                              ; preds = %99, %81, %76
  %101 = load i64, ptr %5, align 8
  %102 = call ptr @H5I_object(i64 noundef %101)
  store ptr %102, ptr %11, align 8
  %103 = icmp eq ptr null, %102
  br i1 %103, label %104, label %119

104:                                              ; preds = %100
  br label %105

105:                                              ; preds = %104
  br label %106

106:                                              ; preds = %105
  br label %107

107:                                              ; preds = %106
  %108 = load i64, ptr @H5E_PLIST_g, align 8
  %109 = load i64, ptr @H5E_NOTFOUND_g, align 8
  %110 = call i32 (ptr, ptr, i32, i64, i64, ptr, ...) @H5E_printf_stack(ptr noundef @.str, ptr noundef @__func__.H5Piterate, i32 noundef 1185, i64 noundef %108, i64 noundef %109, ptr noundef @.str.4)
  br label %111

111:                                              ; preds = %107
  store i8 1, ptr %14, align 1
  %112 = load i8, ptr %14, align 1
  %113 = trunc i8 %112 to i1
  %114 = zext i1 %113 to i8
  store i8 %114, ptr %14, align 1
  br label %115

115:                                              ; preds = %111
  br label %116

116:                                              ; preds = %115
  store i32 -1, ptr %12, align 4
  br label %222

117:                                              ; No predecessors!
  br label %118

118:                                              ; preds = %117
  br label %119

119:                                              ; preds = %118, %100
  %120 = load ptr, ptr %7, align 8
  %121 = icmp eq ptr %120, null
  br i1 %121, label %122, label %137

122:                                              ; preds = %119
  br label %123

123:                                              ; preds = %122
  br label %124

124:                                              ; preds = %123
  br label %125

125:                                              ; preds = %124
  %126 = load i64, ptr @H5E_ARGS_g, align 8
  %127 = load i64, ptr @H5E_BADVALUE_g, align 8
  %128 = call i32 (ptr, ptr, i32, i64, i64, ptr, ...) @H5E_printf_stack(ptr noundef @.str, ptr noundef @__func__.H5Piterate, i32 noundef 1187, i64 noundef %126, i64 noundef %127, ptr noundef @.str.41)
  br label %129

129:                                              ; preds = %125
  store i8 1, ptr %14, align 1
  %130 = load i8, ptr %14, align 1
  %131 = trunc i8 %130 to i1
  %132 = zext i1 %131 to i8
  store i8 %132, ptr %14, align 1
  br label %133

133:                                              ; preds = %129
  br label %134

134:                                              ; preds = %133
  store i32 -1, ptr %12, align 4
  br label %222

135:                                              ; No predecessors!
  br label %136

136:                                              ; preds = %135
  br label %137

137:                                              ; preds = %136, %119
  %138 = load ptr, ptr %7, align 8
  %139 = getelementptr inbounds %struct.H5P_iter_ud_t, ptr %9, i32 0, i32 0
  store ptr %138, ptr %139, align 8
  %140 = load i64, ptr %5, align 8
  %141 = getelementptr inbounds %struct.H5P_iter_ud_t, ptr %9, i32 0, i32 1
  store i64 %140, ptr %141, align 8
  %142 = load ptr, ptr %8, align 8
  %143 = getelementptr inbounds %struct.H5P_iter_ud_t, ptr %9, i32 0, i32 2
  store ptr %142, ptr %143, align 8
  %144 = load i64, ptr %5, align 8
  %145 = call i32 @H5I_get_type(i64 noundef %144)
  %146 = icmp eq i32 11, %145
  br i1 %146, label %147, label %174

147:                                              ; preds = %137
  %148 = load ptr, ptr %11, align 8
  %149 = load ptr, ptr %6, align 8
  %150 = icmp ne ptr %149, null
  br i1 %150, label %151, label %153

151:                                              ; preds = %147
  %152 = load ptr, ptr %6, align 8
  br label %154

153:                                              ; preds = %147
  br label %154

154:                                              ; preds = %153, %151
  %155 = phi ptr [ %152, %151 ], [ %10, %153 ]
  %156 = call i32 @H5P__iterate_plist(ptr noundef %148, i1 noundef zeroext true, ptr noundef %155, ptr noundef @H5P__iterate_cb, ptr noundef %9)
  store i32 %156, ptr %12, align 4
  %157 = icmp slt i32 %156, 0
  br i1 %157, label %158, label %173

158:                                              ; preds = %154
  br label %159

159:                                              ; preds = %158
  br label %160

160:                                              ; preds = %159
  br label %161

161:                                              ; preds = %160
  %162 = load i64, ptr @H5E_PLIST_g, align 8
  %163 = load i64, ptr @H5E_CANTREGISTER_g, align 8
  %164 = call i32 (ptr, ptr, i32, i64, i64, ptr, ...) @H5E_printf_stack(ptr noundef @.str, ptr noundef @__func__.H5Piterate, i32 noundef 1198, i64 noundef %162, i64 noundef %163, ptr noundef @.str.42)
  br label %165

165:                                              ; preds = %161
  store i8 1, ptr %14, align 1
  %166 = load i8, ptr %14, align 1
  %167 = trunc i8 %166 to i1
  %168 = zext i1 %167 to i8
  store i8 %168, ptr %14, align 1
  br label %169

169:                                              ; preds = %165
  br label %170

170:                                              ; preds = %169
  store i32 -1, ptr %12, align 4
  br label %222

171:                                              ; No predecessors!
  br label %172

172:                                              ; preds = %171
  br label %173

173:                                              ; preds = %172, %154
  br label %221

174:                                              ; preds = %137
  %175 = load i64, ptr %5, align 8
  %176 = call i32 @H5I_get_type(i64 noundef %175)
  %177 = icmp eq i32 10, %176
  br i1 %177, label %178, label %205

178:                                              ; preds = %174
  %179 = load ptr, ptr %11, align 8
  %180 = load ptr, ptr %6, align 8
  %181 = icmp ne ptr %180, null
  br i1 %181, label %182, label %184

182:                                              ; preds = %178
  %183 = load ptr, ptr %6, align 8
  br label %185

184:                                              ; preds = %178
  br label %185

185:                                              ; preds = %184, %182
  %186 = phi ptr [ %183, %182 ], [ %10, %184 ]
  %187 = call i32 @H5P__iterate_pclass(ptr noundef %179, ptr noundef %186, ptr noundef @H5P__iterate_cb, ptr noundef %9)
  store i32 %187, ptr %12, align 4
  %188 = icmp slt i32 %187, 0
  br i1 %188, label %189, label %204

189:                                              ; preds = %185
  br label %190

190:                                              ; preds = %189
  br label %191

191:                                              ; preds = %190
  br label %192

192:                                              ; preds = %191
  %193 = load i64, ptr @H5E_PLIST_g, align 8
  %194 = load i64, ptr @H5E_CANTREGISTER_g, align 8
  %195 = call i32 (ptr, ptr, i32, i64, i64, ptr, ...) @H5E_printf_stack(ptr noundef @.str, ptr noundef @__func__.H5Piterate, i32 noundef 1204, i64 noundef %193, i64 noundef %194, ptr noundef @.str.43)
  br label %196

196:                                              ; preds = %192
  store i8 1, ptr %14, align 1
  %197 = load i8, ptr %14, align 1
  %198 = trunc i8 %197 to i1
  %199 = zext i1 %198 to i8
  store i8 %199, ptr %14, align 1
  br label %200

200:                                              ; preds = %196
  br label %201

201:                                              ; preds = %200
  store i32 -1, ptr %12, align 4
  br label %222

202:                                              ; No predecessors!
  br label %203

203:                                              ; preds = %202
  br label %204

204:                                              ; preds = %203, %185
  br label %220

205:                                              ; preds = %174
  br label %206

206:                                              ; preds = %205
  br label %207

207:                                              ; preds = %206
  br label %208

208:                                              ; preds = %207
  %209 = load i64, ptr @H5E_ARGS_g, align 8
  %210 = load i64, ptr @H5E_BADTYPE_g, align 8
  %211 = call i32 (ptr, ptr, i32, i64, i64, ptr, ...) @H5E_printf_stack(ptr noundef @.str, ptr noundef @__func__.H5Piterate, i32 noundef 1207, i64 noundef %209, i64 noundef %210, ptr noundef @.str.23)
  br label %212

212:                                              ; preds = %208
  store i8 1, ptr %14, align 1
  %213 = load i8, ptr %14, align 1
  %214 = trunc i8 %213 to i1
  %215 = zext i1 %214 to i8
  store i8 %215, ptr %14, align 1
  br label %216

216:                                              ; preds = %212
  br label %217

217:                                              ; preds = %216
  store i32 -1, ptr %12, align 4
  br label %222

218:                                              ; No predecessors!
  br label %219

219:                                              ; preds = %218
  br label %220

220:                                              ; preds = %219, %204
  br label %221

221:                                              ; preds = %220, %173
  br label %222

222:                                              ; preds = %221, %217, %201, %170, %134, %116, %97, %72, %48
  %223 = load i8, ptr %13, align 1
  %224 = trunc i8 %223 to i1
  %225 = xor i1 %224, true
  %226 = xor i1 %225, true
  %227 = zext i1 %226 to i32
  %228 = sext i32 %227 to i64
  %229 = icmp ne i64 %228, 0
  br i1 %229, label %230, label %232

230:                                              ; preds = %222
  %231 = call i32 @H5CX_pop(i1 noundef zeroext true)
  store i8 0, ptr %13, align 1
  br label %232

232:                                              ; preds = %230, %222
  %233 = load i8, ptr %14, align 1
  %234 = trunc i8 %233 to i1
  %235 = xor i1 %234, true
  %236 = xor i1 %235, true
  %237 = zext i1 %236 to i32
  %238 = sext i32 %237 to i64
  %239 = icmp ne i64 %238, 0
  br i1 %239, label %240, label %242

240:                                              ; preds = %232
  %241 = call i32 @H5E_dump_api_stack()
  br label %242

242:                                              ; preds = %240, %232
  %243 = load i32, ptr %12, align 4
  ret i32 %243
}