; Function Attrs: nounwind uwtable
define range(i32 -1, -2147483648) i32 @H5Piterate(i64 noundef %0, ptr noundef %1, ptr noundef %2, ptr noundef %3) local_unnamed_addr #0 {
  %5 = alloca %struct.H5P_iter_ud_t, align 8
  %6 = alloca i32, align 4
  store i32 0, ptr %6, align 4
  %7 = load i8, ptr @H5_libinit_g, align 1
  %8 = trunc i8 %7 to i1
  %9 = load i8, ptr @H5_libterm_g, align 1
  %10 = trunc i8 %9 to i1
  %11 = select i1 %8, i1 true, i1 %10
  br i1 %11, label %19, label %12

12:                                               ; preds = %4
  %13 = tail call i32 @H5_init_library() #2
  %14 = icmp slt i32 %13, 0
  br i1 %14, label %15, label %19

15:                                               ; preds = %12
  %16 = load i64, ptr @H5E_FUNC_g, align 8
  %17 = load i64, ptr @H5E_CANTINIT_g, align 8
  %18 = tail call i32 (ptr, ptr, i32, i64, i64, ptr, ...) @H5E_printf_stack(ptr noundef nonnull @.str, ptr noundef nonnull @__func__.H5Piterate, i32 noundef 1179, i64 noundef %16, i64 noundef %17, ptr noundef nonnull @.str.1) #2
  br label %.thread42

19:                                               ; preds = %12, %4
  %20 = tail call i32 @H5CX_push() #2
  %21 = icmp slt i32 %20, 0
  br i1 %21, label %22, label %26

22:                                               ; preds = %19
  %23 = load i64, ptr @H5E_FUNC_g, align 8
  %24 = load i64, ptr @H5E_CANTSET_g, align 8
  %25 = tail call i32 (ptr, ptr, i32, i64, i64, ptr, ...) @H5E_printf_stack(ptr noundef nonnull @.str, ptr noundef nonnull @__func__.H5Piterate, i32 noundef 1179, i64 noundef %23, i64 noundef %24, ptr noundef nonnull @.str.2) #2
  br label %.thread42

26:                                               ; preds = %19
  %27 = tail call i32 @H5E_clear_stack() #2
  %28 = tail call i32 @H5I_get_type(i64 noundef %0) #2
  %.not = icmp eq i32 %28, 11
  br i1 %.not, label %35, label %29

29:                                               ; preds = %26
  %30 = tail call i32 @H5I_get_type(i64 noundef %0) #2
  %.not31 = icmp eq i32 %30, 10
  br i1 %.not31, label %35, label %31

31:                                               ; preds = %29
  %32 = load i64, ptr @H5E_ARGS_g, align 8
  %33 = load i64, ptr @H5E_BADTYPE_g, align 8
  %34 = tail call i32 (ptr, ptr, i32, i64, i64, ptr, ...) @H5E_printf_stack(ptr noundef nonnull @.str, ptr noundef nonnull @__func__.H5Piterate, i32 noundef 1183, i64 noundef %32, i64 noundef %33, ptr noundef nonnull @.str.23) #2
  br label %.thread48

35:                                               ; preds = %29, %26
  %36 = tail call ptr @H5I_object(i64 noundef %0) #2
  %37 = icmp eq ptr %36, null
  br i1 %37, label %38, label %42

38:                                               ; preds = %35
  %39 = load i64, ptr @H5E_PLIST_g, align 8
  %40 = load i64, ptr @H5E_NOTFOUND_g, align 8
  %41 = tail call i32 (ptr, ptr, i32, i64, i64, ptr, ...) @H5E_printf_stack(ptr noundef nonnull @.str, ptr noundef nonnull @__func__.H5Piterate, i32 noundef 1185, i64 noundef %39, i64 noundef %40, ptr noundef nonnull @.str.4) #2
  br label %.thread48

42:                                               ; preds = %35
  %43 = icmp eq ptr %2, null
  br i1 %43, label %44, label %48

44:                                               ; preds = %42
  %45 = load i64, ptr @H5E_ARGS_g, align 8
  %46 = load i64, ptr @H5E_BADVALUE_g, align 8
  %47 = tail call i32 (ptr, ptr, i32, i64, i64, ptr, ...) @H5E_printf_stack(ptr noundef nonnull @.str, ptr noundef nonnull @__func__.H5Piterate, i32 noundef 1187, i64 noundef %45, i64 noundef %46, ptr noundef nonnull @.str.41) #2
  br label %.thread48

48:                                               ; preds = %42
  store ptr %2, ptr %5, align 8
  %49 = getelementptr inbounds i8, ptr %5, i64 8
  store i64 %0, ptr %49, align 8
  %50 = getelementptr inbounds i8, ptr %5, i64 16
  store ptr %3, ptr %50, align 8
  %51 = tail call i32 @H5I_get_type(i64 noundef %0) #2
  %52 = icmp eq i32 %51, 11
  br i1 %52, label %53, label %61

53:                                               ; preds = %48
  %.not33 = icmp eq ptr %1, null
  %54 = select i1 %.not33, ptr %6, ptr %1
  %55 = call i32 @H5P__iterate_plist(ptr noundef nonnull %36, i1 noundef zeroext true, ptr noundef nonnull %54, ptr noundef nonnull @H5P__iterate_cb, ptr noundef nonnull %5) #2
  %56 = icmp slt i32 %55, 0
  br i1 %56, label %57, label %77

57:                                               ; preds = %53
  %58 = load i64, ptr @H5E_PLIST_g, align 8
  %59 = load i64, ptr @H5E_CANTREGISTER_g, align 8
  %60 = call i32 (ptr, ptr, i32, i64, i64, ptr, ...) @H5E_printf_stack(ptr noundef nonnull @.str, ptr noundef nonnull @__func__.H5Piterate, i32 noundef 1198, i64 noundef %58, i64 noundef %59, ptr noundef nonnull @.str.42) #2
  br label %.thread48

61:                                               ; preds = %48
  %62 = tail call i32 @H5I_get_type(i64 noundef %0) #2
  %63 = icmp eq i32 %62, 10
  br i1 %63, label %64, label %72

64:                                               ; preds = %61
  %.not32 = icmp eq ptr %1, null
  %65 = select i1 %.not32, ptr %6, ptr %1
  %66 = call i32 @H5P__iterate_pclass(ptr noundef nonnull %36, ptr noundef nonnull %65, ptr noundef nonnull @H5P__iterate_cb, ptr noundef nonnull %5) #2
  %67 = icmp slt i32 %66, 0
  br i1 %67, label %68, label %77

68:                                               ; preds = %64
  %69 = load i64, ptr @H5E_PLIST_g, align 8
  %70 = load i64, ptr @H5E_CANTREGISTER_g, align 8
  %71 = call i32 (ptr, ptr, i32, i64, i64, ptr, ...) @H5E_printf_stack(ptr noundef nonnull @.str, ptr noundef nonnull @__func__.H5Piterate, i32 noundef 1204, i64 noundef %69, i64 noundef %70, ptr noundef nonnull @.str.43) #2
  br label %.thread48

72:                                               ; preds = %61
  %73 = load i64, ptr @H5E_ARGS_g, align 8
  %74 = load i64, ptr @H5E_BADTYPE_g, align 8
  %75 = tail call i32 (ptr, ptr, i32, i64, i64, ptr, ...) @H5E_printf_stack(ptr noundef nonnull @.str, ptr noundef nonnull @__func__.H5Piterate, i32 noundef 1207, i64 noundef %73, i64 noundef %74, ptr noundef nonnull @.str.23) #2
  br label %.thread48

.thread48:                                        ; preds = %72, %68, %57, %44, %38, %31
  %76 = call i32 @H5CX_pop(i1 noundef zeroext true) #2
  br label %.thread42

77:                                               ; preds = %64, %53
  %.026.ph = phi i32 [ %66, %64 ], [ %55, %53 ]
  %78 = call i32 @H5CX_pop(i1 noundef zeroext true) #2
  br label %80

.thread42:                                        ; preds = %22, %15, %.thread48
  %79 = call i32 @H5E_dump_api_stack() #2
  br label %80

80:                                               ; preds = %77, %.thread42
  %.0263745 = phi i32 [ -1, %.thread42 ], [ %.026.ph, %77 ]
  ret i32 %.0263745
}